; Function Attrs: nounwind uwtable
define range(i32 0, 2) i32 @ossl_quic_stream_map_is_local_allowed_by_stream_limit(ptr noundef readonly captures(none) %0, i64 noundef %1, i32 noundef %2) local_unnamed_addr #0 {
  %4 = getelementptr inbounds nuw i8, ptr %0, i64 104
  %5 = load ptr, ptr %4, align 8, !tbaa !22
  %6 = icmp eq ptr %5, null
  br i1 %6, label %13, label %7

7:                                                ; preds = %3
  %8 = getelementptr inbounds nuw i8, ptr %0, i64 112
  %9 = load ptr, ptr %8, align 8, !tbaa !23
  %10 = tail call i64 %5(i32 noundef %2, ptr noundef %9) #13
  %11 = icmp ult i64 %1, %10
  %12 = zext i1 %11 to i32
  br label %13

13:                                               ; preds = %3, %7
  %.0 = phi i32 [ %12, %7 ], [ 1, %3 ]
  ret i32 %.0
}